target datalayout = "e-m:e-p270:32:32-p271:32:32-p272:64:64-i64:64-i128:128-f80:128-n8:16:32:64-S128"
target triple = "x86_64-pc-linux-gnu"

%struct.aeEventLoop = type { i32, i32, i64, i32, ptr, ptr, ptr, i32, ptr, ptr, ptr, i32, [2 x ptr] }
%struct.aeTimeEvent = type { i64, i64, ptr, ptr, ptr, ptr, ptr, i32 }

@getMonotonicUs = external global ptr, align 8

; Function Attrs: nounwind uwtable
define dso_local i64 @aeCreateTimeEvent(ptr noundef %0, i64 noundef %1, ptr noundef %2, ptr noundef %3, ptr noundef %4) #0 {
  %6 = alloca i64, align 8
  %7 = alloca ptr, align 8
  %8 = alloca i64, align 8
  %9 = alloca ptr, align 8
  %10 = alloca ptr, align 8
  %11 = alloca ptr, align 8
  %12 = alloca i64, align 8
  %13 = alloca ptr, align 8
  %14 = alloca i32, align 4
  store ptr %0, ptr %7, align 8, !tbaa !9
  store i64 %1, ptr %8, align 8, !tbaa !56
  store ptr %2, ptr %9, align 8, !tbaa !46
  store ptr %3, ptr %10, align 8, !tbaa !46
  store ptr %4, ptr %11, align 8, !tbaa !46
  call void @llvm.lifetime.start.p0(i64 8, ptr %12) #10
  %15 = load ptr, ptr %7, align 8, !tbaa !9
  %16 = getelementptr inbounds nuw %struct.aeEventLoop, ptr %15, i32 0, i32 2
  %17 = load i64, ptr %16, align 8, !tbaa !22
  %18 = add nsw i64 %17, 1
  store i64 %18, ptr %16, align 8, !tbaa !22
  store i64 %17, ptr %12, align 8, !tbaa !56
  call void @llvm.lifetime.start.p0(i64 8, ptr %13) #10
  %19 = call noalias ptr @zmalloc(i64 noundef 64) #11
  store ptr %19, ptr %13, align 8, !tbaa !39
  %20 = load ptr, ptr %13, align 8, !tbaa !39
  %21 = icmp eq ptr %20, null
  br i1 %21, label %22, label %23

22:                                               ; preds = %5
  store i64 -1, ptr %6, align 8
  store i32 1, ptr %14, align 4
  br label %67

23:                                               ; preds = %5
  %24 = load i64, ptr %12, align 8, !tbaa !56
  %25 = load ptr, ptr %13, align 8, !tbaa !39
  %26 = getelementptr inbounds nuw %struct.aeTimeEvent, ptr %25, i32 0, i32 0
  store i64 %24, ptr %26, align 8, !tbaa !57
  %27 = load ptr, ptr @getMonotonicUs, align 8, !tbaa !46
  %28 = call i64 %27()
  %29 = load i64, ptr %8, align 8, !tbaa !56
  %30 = mul nsw i64 %29, 1000
  %31 = add i64 %28, %30
  %32 = load ptr, ptr %13, align 8, !tbaa !39
  %33 = getelementptr inbounds nuw %struct.aeTimeEvent, ptr %32, i32 0, i32 1
  store i64 %31, ptr %33, align 8, !tbaa !58
  %34 = load ptr, ptr %9, align 8, !tbaa !46
  %35 = load ptr, ptr %13, align 8, !tbaa !39
  %36 = getelementptr inbounds nuw %struct.aeTimeEvent, ptr %35, i32 0, i32 2
  store ptr %34, ptr %36, align 8, !tbaa !59
  %37 = load ptr, ptr %11, align 8, !tbaa !46
  %38 = load ptr, ptr %13, align 8, !tbaa !39
  %39 = getelementptr inbounds nuw %struct.aeTimeEvent, ptr %38, i32 0, i32 3
  store ptr %37, ptr %39, align 8, !tbaa !43
  %40 = load ptr, ptr %10, align 8, !tbaa !46
  %41 = load ptr, ptr %13, align 8, !tbaa !39
  %42 = getelementptr inbounds nuw %struct.aeTimeEvent, ptr %41, i32 0, i32 4
  store ptr %40, ptr %42, align 8, !tbaa !44
  %43 = load ptr, ptr %13, align 8, !tbaa !39
  %44 = getelementptr inbounds nuw %struct.aeTimeEvent, ptr %43, i32 0, i32 5
  store ptr null, ptr %44, align 8, !tbaa !60
  %45 = load ptr, ptr %7, align 8, !tbaa !9
  %46 = getelementptr inbounds nuw %struct.aeEventLoop, ptr %45, i32 0, i32 6
  %47 = load ptr, ptr %46, align 8, !tbaa !21
  %48 = load ptr, ptr %13, align 8, !tbaa !39
  %49 = getelementptr inbounds nuw %struct.aeTimeEvent, ptr %48, i32 0, i32 6
  store ptr %47, ptr %49, align 8, !tbaa !40
  %50 = load ptr, ptr %13, align 8, !tbaa !39
  %51 = getelementptr inbounds nuw %struct.aeTimeEvent, ptr %50, i32 0, i32 7
  store i32 0, ptr %51, align 8, !tbaa !61
  %52 = load ptr, ptr %13, align 8, !tbaa !39
  %53 = getelementptr inbounds nuw %struct.aeTimeEvent, ptr %52, i32 0, i32 6
  %54 = load ptr, ptr %53, align 8, !tbaa !40
  %55 = icmp ne ptr %54, null
  br i1 %55, label %56, label %62

56:                                               ; preds = %23
  %57 = load ptr, ptr %13, align 8, !tbaa !39
  %58 = load ptr, ptr %13, align 8, !tbaa !39
  %59 = getelementptr inbounds nuw %struct.aeTimeEvent, ptr %58, i32 0, i32 6
  %60 = load ptr, ptr %59, align 8, !tbaa !40
  %61 = getelementptr inbounds nuw %struct.aeTimeEvent, ptr %60, i32 0, i32 5
  store ptr %57, ptr %61, align 8, !tbaa !60
  br label %62

62:                                               ; preds = %56, %23
  %63 = load ptr, ptr %13, align 8, !tbaa !39
  %64 = load ptr, ptr %7, align 8, !tbaa !9
  %65 = getelementptr inbounds nuw %struct.aeEventLoop, ptr %64, i32 0, i32 6
  store ptr %63, ptr %65, align 8, !tbaa !21
  %66 = load i64, ptr %12, align 8, !tbaa !56
  store i64 %66, ptr %6, align 8
  store i32 1, ptr %14, align 4
  br label %67

67:                                               ; preds = %62, %22
  call void @llvm.lifetime.end.p0(i64 8, ptr %13) #10
  call void @llvm.lifetime.end.p0(i64 8, ptr %12) #10
  %68 = load i64, ptr %6, align 8
  ret i64 %68
}