; Function Attrs: nounwind uwtable
define dso_local i64 @aeCreateTimeEvent(ptr noundef captures(none) %0, i64 noundef %1, ptr noundef %2, ptr noundef %3, ptr noundef %4) local_unnamed_addr #0 {
  %6 = getelementptr inbounds nuw i8, ptr %0, i64 8
  %7 = load i64, ptr %6, align 8, !tbaa !19
  %8 = add nsw i64 %7, 1
  store i64 %8, ptr %6, align 8, !tbaa !19
  %9 = tail call noalias dereferenceable_or_null(64) ptr @zmalloc(i64 noundef 64) #17
  %10 = icmp eq ptr %9, null
  br i1 %10, label %28, label %11

11:                                               ; preds = %5
  store i64 %7, ptr %9, align 8, !tbaa !48
  %12 = load ptr, ptr @getMonotonicUs, align 8, !tbaa !49
  %13 = tail call i64 %12() #16
  %14 = mul nsw i64 %1, 1000
  %15 = add i64 %13, %14
  %16 = getelementptr inbounds nuw i8, ptr %9, i64 8
  store i64 %15, ptr %16, align 8, !tbaa !50
  %17 = getelementptr inbounds nuw i8, ptr %9, i64 16
  store ptr %2, ptr %17, align 8, !tbaa !51
  %18 = getelementptr inbounds nuw i8, ptr %9, i64 24
  store ptr %4, ptr %18, align 8, !tbaa !35
  %19 = getelementptr inbounds nuw i8, ptr %9, i64 32
  store ptr %3, ptr %19, align 8, !tbaa !36
  %20 = getelementptr inbounds nuw i8, ptr %9, i64 40
  store ptr null, ptr %20, align 8, !tbaa !52
  %21 = getelementptr inbounds nuw i8, ptr %0, i64 40
  %22 = load ptr, ptr %21, align 8, !tbaa !18
  %23 = getelementptr inbounds nuw i8, ptr %9, i64 48
  store ptr %22, ptr %23, align 8, !tbaa !32
  %24 = getelementptr inbounds nuw i8, ptr %9, i64 56
  store i32 0, ptr %24, align 8, !tbaa !53
  %.not = icmp eq ptr %22, null
  br i1 %.not, label %27, label %25

25:                                               ; preds = %11
  %26 = getelementptr inbounds nuw i8, ptr %22, i64 40
  store ptr %9, ptr %26, align 8, !tbaa !52
  br label %27

27:                                               ; preds = %25, %11
  store ptr %9, ptr %21, align 8, !tbaa !18
  br label %28

28:                                               ; preds = %5, %27
  %.0 = phi i64 [ %7, %27 ], [ -1, %5 ]
  ret i64 %.0
}